target datalayout = "e-m:e-p270:32:32-p271:32:32-p272:64:64-i64:64-i128:128-f80:128-n8:16:32:64-S128"
target triple = "x86_64-pc-linux-gnu"

%struct.Abc_Aig_t_ = type { ptr, ptr, ptr, i32, i32, ptr, ptr, ptr, ptr, ptr, ptr, ptr, i32, i32, i32, i32 }
%struct.Abc_Obj_t_ = type { ptr, ptr, i32, i32, %struct.Vec_Int_t_, %struct.Vec_Int_t_, %union.anon, %union.anon.0 }
%struct.Vec_Int_t_ = type { i32, i32, ptr }
%union.anon = type { ptr }
%union.anon.0 = type { ptr }
%struct.Abc_Ntk_t_ = type { i32, i32, ptr, ptr, ptr, ptr, ptr, ptr, ptr, ptr, ptr, ptr, ptr, [11 x i32], i32, i32, i32, i32, ptr, i32, ptr, ptr, i32, i32, i32, double, i32, %struct.Vec_Int_t_, ptr, ptr, ptr, ptr, ptr, float, i32, ptr, ptr, ptr, ptr, ptr, ptr, ptr, ptr, ptr, ptr, ptr, ptr, ptr, ptr, ptr, ptr, ptr, ptr, ptr, ptr, ptr }
%struct.Vec_Ptr_t_ = type { i32, i32, ptr }

; Function Attrs: nounwind uwtable
define internal i32 @Abc_ObjIsComplement(ptr noundef %0) #0 {
  %2 = alloca ptr, align 8
  store ptr %0, ptr %2, align 8
  %3 = load ptr, ptr %2, align 8
  %4 = ptrtoint ptr %3 to i64
  %5 = and i64 %4, 1
  %6 = trunc i64 %5 to i32
  ret i32 %6
}

; Function Attrs: nounwind uwtable
define internal ptr @Abc_ObjRegular(ptr noundef %0) #0 {
  %2 = alloca ptr, align 8
  store ptr %0, ptr %2, align 8
  %3 = load ptr, ptr %2, align 8
  %4 = ptrtoint ptr %3 to i64
  %5 = and i64 %4, -2
  %6 = inttoptr i64 %5 to ptr
  ret ptr %6
}

; Function Attrs: nounwind uwtable
define internal i32 @Abc_ObjFaninC1(ptr noundef %0) #0 {
  %2 = alloca ptr, align 8
  store ptr %0, ptr %2, align 8
  %3 = load ptr, ptr %2, align 8
  %4 = getelementptr inbounds %struct.Abc_Obj_t_, ptr %3, i32 0, i32 3
  %5 = load i32, ptr %4, align 4
  %6 = lshr i32 %5, 11
  %7 = and i32 %6, 1
  ret i32 %7
}

; Function Attrs: nounwind uwtable
define internal ptr @Abc_ObjFanin1(ptr noundef %0) #0 {
  %2 = alloca ptr, align 8
  store ptr %0, ptr %2, align 8
  %3 = load ptr, ptr %2, align 8
  %4 = getelementptr inbounds %struct.Abc_Obj_t_, ptr %3, i32 0, i32 0
  %5 = load ptr, ptr %4, align 8
  %6 = getelementptr inbounds %struct.Abc_Ntk_t_, ptr %5, i32 0, i32 5
  %7 = load ptr, ptr %6, align 8
  %8 = getelementptr inbounds %struct.Vec_Ptr_t_, ptr %7, i32 0, i32 2
  %9 = load ptr, ptr %8, align 8
  %10 = load ptr, ptr %2, align 8
  %11 = getelementptr inbounds %struct.Abc_Obj_t_, ptr %10, i32 0, i32 4
  %12 = getelementptr inbounds %struct.Vec_Int_t_, ptr %11, i32 0, i32 2
  %13 = load ptr, ptr %12, align 8
  %14 = getelementptr inbounds i32, ptr %13, i64 1
  %15 = load i32, ptr %14, align 4
  %16 = sext i32 %15 to i64
  %17 = getelementptr inbounds ptr, ptr %9, i64 %16
  %18 = load ptr, ptr %17, align 8
  ret ptr %18
}

; Function Attrs: nounwind uwtable
define internal ptr @Abc_ObjNotCond(ptr noundef %0, i32 noundef %1) #0 {
  %3 = alloca ptr, align 8
  %4 = alloca i32, align 4
  store ptr %0, ptr %3, align 8
  store i32 %1, ptr %4, align 4
  %5 = load ptr, ptr %3, align 8
  %6 = ptrtoint ptr %5 to i64
  %7 = load i32, ptr %4, align 4
  %8 = icmp ne i32 %7, 0
  %9 = zext i1 %8 to i32
  %10 = sext i32 %9 to i64
  %11 = xor i64 %6, %10
  %12 = inttoptr i64 %11 to ptr
  ret ptr %12
}

; Function Attrs: nounwind uwtable
define internal i32 @Abc_ObjFaninC0(ptr noundef %0) #0 {
  %2 = alloca ptr, align 8
  store ptr %0, ptr %2, align 8
  %3 = load ptr, ptr %2, align 8
  %4 = getelementptr inbounds %struct.Abc_Obj_t_, ptr %3, i32 0, i32 3
  %5 = load i32, ptr %4, align 4
  %6 = lshr i32 %5, 10
  %7 = and i32 %6, 1
  ret i32 %7
}

; Function Attrs: nounwind uwtable
define internal ptr @Abc_ObjFanin0(ptr noundef %0) #0 {
  %2 = alloca ptr, align 8
  store ptr %0, ptr %2, align 8
  %3 = load ptr, ptr %2, align 8
  %4 = getelementptr inbounds %struct.Abc_Obj_t_, ptr %3, i32 0, i32 0
  %5 = load ptr, ptr %4, align 8
  %6 = getelementptr inbounds %struct.Abc_Ntk_t_, ptr %5, i32 0, i32 5
  %7 = load ptr, ptr %6, align 8
  %8 = getelementptr inbounds %struct.Vec_Ptr_t_, ptr %7, i32 0, i32 2
  %9 = load ptr, ptr %8, align 8
  %10 = load ptr, ptr %2, align 8
  %11 = getelementptr inbounds %struct.Abc_Obj_t_, ptr %10, i32 0, i32 4
  %12 = getelementptr inbounds %struct.Vec_Int_t_, ptr %11, i32 0, i32 2
  %13 = load ptr, ptr %12, align 8
  %14 = getelementptr inbounds i32, ptr %13, i64 0
  %15 = load i32, ptr %14, align 4
  %16 = sext i32 %15 to i64
  %17 = getelementptr inbounds ptr, ptr %9, i64 %16
  %18 = load ptr, ptr %17, align 8
  ret ptr %18
}

; Function Attrs: nounwind uwtable
define internal i32 @Abc_HashKey2(ptr noundef %0, ptr noundef %1, i32 noundef %2) #0 {
  %4 = alloca ptr, align 8
  %5 = alloca ptr, align 8
  %6 = alloca i32, align 4
  %7 = alloca i32, align 4
  store ptr %0, ptr %4, align 8
  store ptr %1, ptr %5, align 8
  store i32 %2, ptr %6, align 4
  store i32 0, ptr %7, align 4
  %8 = load ptr, ptr %4, align 8
  %9 = call ptr @Abc_ObjRegular(ptr noundef %8)
  %10 = getelementptr inbounds %struct.Abc_Obj_t_, ptr %9, i32 0, i32 2
  %11 = load i32, ptr %10, align 8
  %12 = mul nsw i32 %11, 7937
  %13 = load i32, ptr %7, align 4
  %14 = xor i32 %13, %12
  store i32 %14, ptr %7, align 4
  %15 = load ptr, ptr %5, align 8
  %16 = call ptr @Abc_ObjRegular(ptr noundef %15)
  %17 = getelementptr inbounds %struct.Abc_Obj_t_, ptr %16, i32 0, i32 2
  %18 = load i32, ptr %17, align 8
  %19 = mul nsw i32 %18, 2971
  %20 = load i32, ptr %7, align 4
  %21 = xor i32 %20, %19
  store i32 %21, ptr %7, align 4
  %22 = load ptr, ptr %4, align 8
  %23 = call i32 @Abc_ObjIsComplement(ptr noundef %22)
  %24 = mul nsw i32 %23, 911
  %25 = load i32, ptr %7, align 4
  %26 = xor i32 %25, %24
  store i32 %26, ptr %7, align 4
  %27 = load ptr, ptr %5, align 8
  %28 = call i32 @Abc_ObjIsComplement(ptr noundef %27)
  %29 = mul nsw i32 %28, 353
  %30 = load i32, ptr %7, align 4
  %31 = xor i32 %30, %29
  store i32 %31, ptr %7, align 4
  %32 = load i32, ptr %7, align 4
  %33 = load i32, ptr %6, align 4
  %34 = urem i32 %32, %33
  ret i32 %34
}

; Function Attrs: nounwind uwtable
define internal ptr @Abc_ObjChild1(ptr noundef %0) #0 {
  %2 = alloca ptr, align 8
  store ptr %0, ptr %2, align 8
  %3 = load ptr, ptr %2, align 8
  %4 = call ptr @Abc_ObjFanin1(ptr noundef %3)
  %5 = load ptr, ptr %2, align 8
  %6 = call i32 @Abc_ObjFaninC1(ptr noundef %5)
  %7 = call ptr @Abc_ObjNotCond(ptr noundef %4, i32 noundef %6)
  ret ptr %7
}

; Function Attrs: nounwind uwtable
define internal ptr @Abc_ObjChild0(ptr noundef %0) #0 {
  %2 = alloca ptr, align 8
  store ptr %0, ptr %2, align 8
  %3 = load ptr, ptr %2, align 8
  %4 = call ptr @Abc_ObjFanin0(ptr noundef %3)
  %5 = load ptr, ptr %2, align 8
  %6 = call i32 @Abc_ObjFaninC0(ptr noundef %5)
  %7 = call ptr @Abc_ObjNotCond(ptr noundef %4, i32 noundef %6)
  ret ptr %7
}

; Function Attrs: nounwind uwtable
define void @Abc_AigRehash(ptr noundef %0) #0 {
  %2 = alloca ptr, align 8
  %3 = alloca ptr, align 8
  %4 = alloca ptr, align 8
  %5 = alloca ptr, align 8
  %6 = alloca ptr, align 8
  %7 = alloca i32, align 4
  %8 = alloca i32, align 4
  %9 = alloca i32, align 4
  %10 = alloca i32, align 4
  store ptr %0, ptr %2, align 8
  %11 = load ptr, ptr %2, align 8
  %12 = getelementptr inbounds %struct.Abc_Aig_t_, ptr %11, i32 0, i32 3
  %13 = load i32, ptr %12, align 8
  %14 = sext i32 %13 to i64
  %15 = mul i64 8, %14
  %16 = call noalias ptr @malloc(i64 noundef %15) #6
  store ptr %16, ptr %3, align 8
  %17 = load ptr, ptr %3, align 8
  %18 = load ptr, ptr %2, align 8
  %19 = getelementptr inbounds %struct.Abc_Aig_t_, ptr %18, i32 0, i32 3
  %20 = load i32, ptr %19, align 8
  %21 = sext i32 %20 to i64
  %22 = mul i64 8, %21
  call void @llvm.memset.p0.i64(ptr align 8 %17, i8 0, i64 %22, i1 false)
  store i32 0, ptr %8, align 4
  store i32 0, ptr %10, align 4
  br label %23

23:                                               ; preds = %133, %1
  %24 = load i32, ptr %10, align 4
  %25 = load ptr, ptr %2, align 8
  %26 = getelementptr inbounds %struct.Abc_Aig_t_, ptr %25, i32 0, i32 3
  %27 = load i32, ptr %26, align 8
  %28 = icmp slt i32 %24, %27
  br i1 %28, label %29, label %136

29:                                               ; preds = %23
  %30 = load ptr, ptr %2, align 8
  %31 = getelementptr inbounds %struct.Abc_Aig_t_, ptr %30, i32 0, i32 2
  %32 = load ptr, ptr %31, align 8
  %33 = load i32, ptr %10, align 4
  %34 = sext i32 %33 to i64
  %35 = getelementptr inbounds ptr, ptr %32, i64 %34
  %36 = load ptr, ptr %35, align 8
  store ptr %36, ptr %4, align 8
  %37 = load ptr, ptr %4, align 8
  %38 = icmp ne ptr %37, null
  br i1 %38, label %39, label %43

39:                                               ; preds = %29
  %40 = load ptr, ptr %4, align 8
  %41 = getelementptr inbounds %struct.Abc_Obj_t_, ptr %40, i32 0, i32 1
  %42 = load ptr, ptr %41, align 8
  br label %44

43:                                               ; preds = %29
  br label %44

44:                                               ; preds = %43, %39
  %45 = phi ptr [ %42, %39 ], [ null, %43 ]
  store ptr %45, ptr %5, align 8
  br label %46

46:                                               ; preds = %130, %44
  %47 = load ptr, ptr %4, align 8
  %48 = icmp ne ptr %47, null
  br i1 %48, label %49, label %132

49:                                               ; preds = %46
  %50 = load ptr, ptr %4, align 8
  %51 = getelementptr inbounds %struct.Abc_Obj_t_, ptr %50, i32 0, i32 4
  %52 = getelementptr inbounds %struct.Vec_Int_t_, ptr %51, i32 0, i32 2
  %53 = load ptr, ptr %52, align 8
  store ptr %53, ptr %6, align 8
  %54 = load ptr, ptr %6, align 8
  %55 = getelementptr inbounds i32, ptr %54, i64 0
  %56 = load i32, ptr %55, align 4
  %57 = load ptr, ptr %6, align 8
  %58 = getelementptr inbounds i32, ptr %57, i64 1
  %59 = load i32, ptr %58, align 4
  %60 = icmp sgt i32 %56, %59
  br i1 %60, label %61, label %98

61:                                               ; preds = %49
  %62 = load ptr, ptr %6, align 8
  %63 = getelementptr inbounds i32, ptr %62, i64 0
  %64 = load i32, ptr %63, align 4
  store i32 %64, ptr %9, align 4
  %65 = load ptr, ptr %6, align 8
  %66 = getelementptr inbounds i32, ptr %65, i64 1
  %67 = load i32, ptr %66, align 4
  %68 = load ptr, ptr %6, align 8
  %69 = getelementptr inbounds i32, ptr %68, i64 0
  store i32 %67, ptr %69, align 4
  %70 = load i32, ptr %9, align 4
  %71 = load ptr, ptr %6, align 8
  %72 = getelementptr inbounds i32, ptr %71, i64 1
  store i32 %70, ptr %72, align 4
  %73 = load ptr, ptr %4, align 8
  %74 = getelementptr inbounds %struct.Abc_Obj_t_, ptr %73, i32 0, i32 3
  %75 = load i32, ptr %74, align 4
  %76 = lshr i32 %75, 10
  %77 = and i32 %76, 1
  store i32 %77, ptr %9, align 4
  %78 = load ptr, ptr %4, align 8
  %79 = getelementptr inbounds %struct.Abc_Obj_t_, ptr %78, i32 0, i32 3
  %80 = load i32, ptr %79, align 4
  %81 = lshr i32 %80, 11
  %82 = and i32 %81, 1
  %83 = load ptr, ptr %4, align 8
  %84 = getelementptr inbounds %struct.Abc_Obj_t_, ptr %83, i32 0, i32 3
  %85 = load i32, ptr %84, align 4
  %86 = and i32 %82, 1
  %87 = shl i32 %86, 10
  %88 = and i32 %85, -1025
  %89 = or i32 %88, %87
  store i32 %89, ptr %84, align 4
  %90 = load i32, ptr %9, align 4
  %91 = load ptr, ptr %4, align 8
  %92 = getelementptr inbounds %struct.Abc_Obj_t_, ptr %91, i32 0, i32 3
  %93 = load i32, ptr %92, align 4
  %94 = and i32 %90, 1
  %95 = shl i32 %94, 11
  %96 = and i32 %93, -2049
  %97 = or i32 %96, %95
  store i32 %97, ptr %92, align 4
  br label %98

98:                                               ; preds = %61, %49
  %99 = load ptr, ptr %4, align 8
  %100 = call ptr @Abc_ObjChild0(ptr noundef %99)
  %101 = load ptr, ptr %4, align 8
  %102 = call ptr @Abc_ObjChild1(ptr noundef %101)
  %103 = load ptr, ptr %2, align 8
  %104 = getelementptr inbounds %struct.Abc_Aig_t_, ptr %103, i32 0, i32 3
  %105 = load i32, ptr %104, align 8
  %106 = call i32 @Abc_HashKey2(ptr noundef %100, ptr noundef %102, i32 noundef %105)
  store i32 %106, ptr %7, align 4
  %107 = load ptr, ptr %3, align 8
  %108 = load i32, ptr %7, align 4
  %109 = zext i32 %108 to i64
  %110 = getelementptr inbounds ptr, ptr %107, i64 %109
  %111 = load ptr, ptr %110, align 8
  %112 = load ptr, ptr %4, align 8
  %113 = getelementptr inbounds %struct.Abc_Obj_t_, ptr %112, i32 0, i32 1
  store ptr %111, ptr %113, align 8
  %114 = load ptr, ptr %4, align 8
  %115 = load ptr, ptr %3, align 8
  %116 = load i32, ptr %7, align 4
  %117 = zext i32 %116 to i64
  %118 = getelementptr inbounds ptr, ptr %115, i64 %117
  store ptr %114, ptr %118, align 8
  %119 = load i32, ptr %8, align 4
  %120 = add nsw i32 %119, 1
  store i32 %120, ptr %8, align 4
  br label %121

121:                                              ; preds = %98
  %122 = load ptr, ptr %5, align 8
  store ptr %122, ptr %4, align 8
  %123 = load ptr, ptr %4, align 8
  %124 = icmp ne ptr %123, null
  br i1 %124, label %125, label %129

125:                                              ; preds = %121
  %126 = load ptr, ptr %4, align 8
  %127 = getelementptr inbounds %struct.Abc_Obj_t_, ptr %126, i32 0, i32 1
  %128 = load ptr, ptr %127, align 8
  br label %130

129:                                              ; preds = %121
  br label %130

130:                                              ; preds = %129, %125
  %131 = phi ptr [ %128, %125 ], [ null, %129 ]
  store ptr %131, ptr %5, align 8
  br label %46, !llvm.loop !21

132:                                              ; preds = %46
  br label %133

133:                                              ; preds = %132
  %134 = load i32, ptr %10, align 4
  %135 = add nsw i32 %134, 1
  store i32 %135, ptr %10, align 4
  br label %23, !llvm.loop !22

136:                                              ; preds = %23
  %137 = load ptr, ptr %2, align 8
  %138 = getelementptr inbounds %struct.Abc_Aig_t_, ptr %137, i32 0, i32 2
  %139 = load ptr, ptr %138, align 8
  %140 = icmp ne ptr %139, null
  br i1 %140, label %141, label %147

141:                                              ; preds = %136
  %142 = load ptr, ptr %2, align 8
  %143 = getelementptr inbounds %struct.Abc_Aig_t_, ptr %142, i32 0, i32 2
  %144 = load ptr, ptr %143, align 8
  call void @free(ptr noundef %144) #7
  %145 = load ptr, ptr %2, align 8
  %146 = getelementptr inbounds %struct.Abc_Aig_t_, ptr %145, i32 0, i32 2
  store ptr null, ptr %146, align 8
  br label %148

147:                                              ; preds = %136
  br label %148

148:                                              ; preds = %147, %141
  %149 = load ptr, ptr %3, align 8
  %150 = load ptr, ptr %2, align 8
  %151 = getelementptr inbounds %struct.Abc_Aig_t_, ptr %150, i32 0, i32 2
  store ptr %149, ptr %151, align 8
  ret void
}