; Function Attrs: nounwind uwtable
define void @Abc_AigRehash(ptr noundef captures(none) %0) local_unnamed_addr #0 {
  %2 = getelementptr inbounds nuw i8, ptr %0, i64 24
  %3 = load i32, ptr %2, align 8
  %4 = sext i32 %3 to i64
  %5 = shl nsw i64 %4, 3
  %calloc = tail call ptr @calloc(i64 1, i64 %5)
  %6 = icmp sgt i32 %3, 0
  br i1 %6, label %.lr.ph64, label %._crit_edge65

.lr.ph64:                                         ; preds = %1
  %7 = getelementptr inbounds nuw i8, ptr %0, i64 16
  br label %8

8:                                                ; preds = %.lr.ph64, %._crit_edge
  %9 = phi i32 [ %3, %.lr.ph64 ], [ %71, %._crit_edge ]
  %indvars.iv = phi i64 [ 0, %.lr.ph64 ], [ %indvars.iv.next, %._crit_edge ]
  %10 = load ptr, ptr %7, align 8
  %11 = getelementptr inbounds nuw ptr, ptr %10, i64 %indvars.iv
  %12 = load ptr, ptr %11, align 8
  %.not48 = icmp eq ptr %12, null
  br i1 %.not48, label %._crit_edge, label %.lr.ph

.lr.ph:                                           ; preds = %8, %31
  %.sink73 = phi ptr [ %14, %31 ], [ %12, %8 ]
  %13 = getelementptr inbounds nuw i8, ptr %.sink73, i64 8
  %14 = load ptr, ptr %13, align 8
  %15 = getelementptr inbounds nuw i8, ptr %.sink73, i64 32
  %16 = load ptr, ptr %15, align 8
  %17 = load i32, ptr %16, align 4
  %18 = getelementptr inbounds nuw i8, ptr %16, i64 4
  %19 = load i32, ptr %18, align 4
  %20 = icmp sgt i32 %17, %19
  br i1 %20, label %21, label %.lr.ph._crit_edge

.lr.ph._crit_edge:                                ; preds = %.lr.ph
  %.phi.trans.insert = getelementptr i8, ptr %.sink73, i64 20
  %.val3.i.pre = load i32, ptr %.phi.trans.insert, align 4
  br label %31

21:                                               ; preds = %.lr.ph
  store i32 %19, ptr %16, align 4
  store i32 %17, ptr %18, align 4
  %22 = getelementptr inbounds nuw i8, ptr %.sink73, i64 20
  %23 = load i32, ptr %22, align 4
  %24 = lshr i32 %23, 1
  %25 = and i32 %24, 1024
  %26 = and i32 %23, -3073
  %27 = or disjoint i32 %25, %26
  %28 = shl i32 %23, 1
  %29 = and i32 %28, 2048
  %30 = or disjoint i32 %27, %29
  store i32 %30, ptr %22, align 4
  %.val2.i.pre = load ptr, ptr %15, align 8
  %.val2.val.i.pre = load i32, ptr %.val2.i.pre, align 4
  %.phi.trans.insert70 = getelementptr i8, ptr %.val2.i.pre, i64 4
  %.val2.val.i54.pre = load i32, ptr %.phi.trans.insert70, align 4
  br label %31

31:                                               ; preds = %.lr.ph._crit_edge, %21
  %.val2.val.i54 = phi i32 [ %.val2.val.i54.pre, %21 ], [ %19, %.lr.ph._crit_edge ]
  %.val3.i = phi i32 [ %30, %21 ], [ %.val3.i.pre, %.lr.ph._crit_edge ]
  %.val2.val.i = phi i32 [ %.val2.val.i.pre, %21 ], [ %17, %.lr.ph._crit_edge ]
  %.val.i = load ptr, ptr %.sink73, align 8
  %32 = getelementptr i8, ptr %.val.i, i64 32
  %.val.val.i = load ptr, ptr %32, align 8
  %33 = getelementptr i8, ptr %.val.val.i, i64 8
  %.val.val.val.i = load ptr, ptr %33, align 8
  %34 = sext i32 %.val2.val.i to i64
  %35 = getelementptr inbounds ptr, ptr %.val.val.val.i, i64 %34
  %36 = load ptr, ptr %35, align 8
  %37 = lshr i32 %.val3.i, 10
  %38 = ptrtoint ptr %36 to i64
  %39 = zext nneg i32 %37 to i64
  %40 = xor i64 %39, %38
  %41 = sext i32 %.val2.val.i54 to i64
  %42 = getelementptr inbounds ptr, ptr %.val.val.val.i, i64 %41
  %43 = load ptr, ptr %42, align 8
  %44 = lshr i32 %.val3.i, 11
  %45 = ptrtoint ptr %43 to i64
  %46 = zext nneg i32 %44 to i64
  %47 = xor i64 %45, %46
  %48 = load i32, ptr %2, align 8
  %49 = and i64 %38, -2
  %50 = inttoptr i64 %49 to ptr
  %51 = getelementptr inbounds nuw i8, ptr %50, i64 16
  %52 = load i32, ptr %51, align 8
  %53 = mul nsw i32 %52, 7937
  %54 = and i64 %45, -2
  %55 = inttoptr i64 %54 to ptr
  %56 = getelementptr inbounds nuw i8, ptr %55, i64 16
  %57 = load i32, ptr %56, align 8
  %58 = mul nsw i32 %57, 2971
  %59 = trunc i64 %40 to i1
  %60 = select i1 %59, i32 911, i32 0
  %61 = trunc i64 %47 to i1
  %62 = select i1 %61, i32 353, i32 0
  %63 = xor i32 %53, %60
  %64 = xor i32 %63, %62
  %65 = xor i32 %64, %58
  %66 = urem i32 %65, %48
  %67 = zext i32 %66 to i64
  %68 = getelementptr inbounds nuw ptr, ptr %calloc, i64 %67
  %69 = load ptr, ptr %68, align 8
  %70 = getelementptr inbounds nuw i8, ptr %.sink73, i64 8
  store ptr %69, ptr %70, align 8
  store ptr %.sink73, ptr %68, align 8
  %.not50 = icmp eq ptr %14, null
  br i1 %.not50, label %._crit_edge.loopexit, label %.lr.ph, !llvm.loop !24

._crit_edge.loopexit:                             ; preds = %31
  %.pre = load i32, ptr %2, align 8
  br label %._crit_edge

._crit_edge:                                      ; preds = %8, %._crit_edge.loopexit
  %71 = phi i32 [ %.pre, %._crit_edge.loopexit ], [ %9, %8 ]
  %indvars.iv.next = add nuw nsw i64 %indvars.iv, 1
  %72 = sext i32 %71 to i64
  %73 = icmp slt i64 %indvars.iv.next, %72
  br i1 %73, label %8, label %._crit_edge65, !llvm.loop !25

._crit_edge65:                                    ; preds = %._crit_edge, %1
  %74 = getelementptr inbounds nuw i8, ptr %0, i64 16
  %75 = load ptr, ptr %74, align 8
  %.not = icmp eq ptr %75, null
  br i1 %.not, label %77, label %76

76:                                               ; preds = %._crit_edge65
  tail call void @free(ptr noundef nonnull %75) #21
  br label %77

77:                                               ; preds = %._crit_edge65, %76
  store ptr %calloc, ptr %74, align 8
  ret void
}